; Function Attrs: mustprogress uwtable
define dso_local void @_ZN5cmsys11SystemTools13ReplaceStringERNSt7__cxx1112basic_stringIcSt11char_traitsIcESaIcEEERKS6_S9_(ptr noundef nonnull align 8 dereferenceable(32) %0, ptr noundef nonnull readonly align 8 captures(none) dereferenceable(32) %1, ptr noundef nonnull readonly align 8 captures(none) dereferenceable(32) %2) local_unnamed_addr #6 align 2 {
  %4 = getelementptr inbounds nuw i8, ptr %1, i64 8
  %5 = load i64, ptr %4, align 8, !tbaa !18
  %6 = icmp eq i64 %5, 0
  br i1 %6, label %9, label %7

7:                                                ; preds = %3
  %8 = load ptr, ptr %1, align 8, !tbaa !21
  tail call void @_ZN5cmsys17SystemToolsStatic13ReplaceStringERNSt7__cxx1112basic_stringIcSt11char_traitsIcESaIcEEEPKcmRKS6_(ptr noundef nonnull align 8 dereferenceable(32) %0, ptr noundef %8, i64 noundef %5, ptr noundef nonnull align 8 dereferenceable(32) %2)
  br label %9

9:                                                ; preds = %3, %7
  ret void
}